; ModuleID = '21/1888.c'
source_filename = "21/1888.c"
target datalayout = "e-m:e-p270:32:32-p271:32:32-p272:64:64-i64:64-f80:128-n8:16:32:64-S128"
target triple = "x86_64-pc-linux-gnu"

@.str = private unnamed_addr constant [3 x i8] c"%d\00", align 1
@.str.1 = private unnamed_addr constant [6 x i8] c"%d,%d\00", align 1

; Function Attrs: noinline nounwind uwtable
define dso_local float @jueduizhi(float %0) #0 {
  %2 = alloca float, align 4
  store float %0, float* %2, align 4
  %3 = load float, float* %2, align 4
  %4 = fcmp olt float %3, 0.000000e+00
  br i1 %4, label %5, label %8

5:                                                ; preds = %1
  %6 = load float, float* %2, align 4
  %7 = fneg float %6
  store float %7, float* %2, align 4
  br label %8

8:                                                ; preds = %5, %1
  %9 = load float, float* %2, align 4
  ret float %9
}

; Function Attrs: noinline nounwind uwtable
define dso_local void @main() #0 {
  %1 = alloca [300 x i32], align 16
  %2 = alloca i32, align 4
  %3 = alloca i32, align 4
  %4 = alloca i32, align 4
  %5 = alloca float, align 4
  %6 = alloca float, align 4
  %7 = alloca float, align 4
  %8 = alloca i32, align 4
  %9 = alloca i32, align 4
  store i32 1, i32* %4, align 4
  store float 0.000000e+00, float* %6, align 4
  %10 = call i32 (i8*, ...) @__isoc99_scanf(i8* getelementptr inbounds ([3 x i8], [3 x i8]* @.str, i64 0, i64 0), i32* %2)
  store i32 0, i32* %3, align 4
  br label %11

11:                                               ; preds = %20, %0
  %12 = load i32, i32* %3, align 4
  %13 = load i32, i32* %2, align 4
  %14 = icmp slt i32 %12, %13
  br i1 %14, label %15, label %23

15:                                               ; preds = %11
  %16 = load i32, i32* %3, align 4
  %17 = sext i32 %16 to i64
  %18 = getelementptr inbounds [300 x i32], [300 x i32]* %1, i64 0, i64 %17
  %19 = call i32 (i8*, ...) @__isoc99_scanf(i8* getelementptr inbounds ([3 x i8], [3 x i8]* @.str, i64 0, i64 0), i32* %18)
  br label %20

20:                                               ; preds = %15
  %21 = load i32, i32* %3, align 4
  %22 = add nsw i32 %21, 1
  store i32 %22, i32* %3, align 4
  br label %11

23:                                               ; preds = %11
  store i32 0, i32* %3, align 4
  br label %24

24:                                               ; preds = %36, %23
  %25 = load i32, i32* %3, align 4
  %26 = load i32, i32* %2, align 4
  %27 = icmp slt i32 %25, %26
  br i1 %27, label %28, label %39

28:                                               ; preds = %24
  %29 = load float, float* %6, align 4
  %30 = load i32, i32* %3, align 4
  %31 = sext i32 %30 to i64
  %32 = getelementptr inbounds [300 x i32], [300 x i32]* %1, i64 0, i64 %31
  %33 = load i32, i32* %32, align 4
  %34 = sitofp i32 %33 to float
  %35 = fadd float %29, %34
  store float %35, float* %6, align 4
  br label %36

36:                                               ; preds = %28
  %37 = load i32, i32* %3, align 4
  %38 = add nsw i32 %37, 1
  store i32 %38, i32* %3, align 4
  br label %24

39:                                               ; preds = %24
  %40 = load float, float* %6, align 4
  %41 = load i32, i32* %2, align 4
  %42 = sitofp i32 %41 to float
  %43 = fdiv float %40, %42
  store float %43, float* %5, align 4
  %44 = getelementptr inbounds [300 x i32], [300 x i32]* %1, i64 0, i64 0
  %45 = load i32, i32* %44, align 16
  store i32 %45, i32* %8, align 4
  %46 = getelementptr inbounds [300 x i32], [300 x i32]* %1, i64 0, i64 0
  %47 = load i32, i32* %46, align 16
  store i32 %47, i32* %9, align 4
  %48 = load float, float* %5, align 4
  %49 = getelementptr inbounds [300 x i32], [300 x i32]* %1, i64 0, i64 0
  %50 = load i32, i32* %49, align 16
  %51 = sitofp i32 %50 to float
  %52 = fsub float %48, %51
  %53 = call float @jueduizhi(float %52)
  store float %53, float* %7, align 4
  store i32 1, i32* %3, align 4
  br label %54

54:                                               ; preds = %101, %39
  %55 = load i32, i32* %3, align 4
  %56 = load i32, i32* %2, align 4
  %57 = icmp slt i32 %55, %56
  br i1 %57, label %58, label %104

58:                                               ; preds = %54
  %59 = load float, float* %5, align 4
  %60 = load i32, i32* %3, align 4
  %61 = sext i32 %60 to i64
  %62 = getelementptr inbounds [300 x i32], [300 x i32]* %1, i64 0, i64 %61
  %63 = load i32, i32* %62, align 4
  %64 = sitofp i32 %63 to float
  %65 = fsub float %59, %64
  %66 = call float @jueduizhi(float %65)
  %67 = load float, float* %7, align 4
  %68 = fcmp ogt float %66, %67
  br i1 %68, label %69, label %83

69:                                               ; preds = %58
  %70 = load float, float* %5, align 4
  %71 = load i32, i32* %3, align 4
  %72 = sext i32 %71 to i64
  %73 = getelementptr inbounds [300 x i32], [300 x i32]* %1, i64 0, i64 %72
  %74 = load i32, i32* %73, align 4
  %75 = sitofp i32 %74 to float
  %76 = fsub float %70, %75
  %77 = call float @jueduizhi(float %76)
  store float %77, float* %7, align 4
  %78 = load i32, i32* %3, align 4
  %79 = sext i32 %78 to i64
  %80 = getelementptr inbounds [300 x i32], [300 x i32]* %1, i64 0, i64 %79
  %81 = load i32, i32* %80, align 4
  store i32 %81, i32* %8, align 4
  %82 = load i32, i32* %8, align 4
  store i32 %82, i32* %9, align 4
  br label %100

83:                                               ; preds = %58
  %84 = load float, float* %5, align 4
  %85 = load i32, i32* %3, align 4
  %86 = sext i32 %85 to i64
  %87 = getelementptr inbounds [300 x i32], [300 x i32]* %1, i64 0, i64 %86
  %88 = load i32, i32* %87, align 4
  %89 = sitofp i32 %88 to float
  %90 = fsub float %84, %89
  %91 = call float @jueduizhi(float %90)
  %92 = load float, float* %7, align 4
  %93 = fcmp oeq float %91, %92
  br i1 %93, label %94, label %99

94:                                               ; preds = %83
  %95 = load i32, i32* %3, align 4
  %96 = sext i32 %95 to i64
  %97 = getelementptr inbounds [300 x i32], [300 x i32]* %1, i64 0, i64 %96
  %98 = load i32, i32* %97, align 4
  store i32 %98, i32* %9, align 4
  br label %99

99:                                               ; preds = %94, %83
  br label %100

100:                                              ; preds = %99, %69
  br label %101

101:                                              ; preds = %100
  %102 = load i32, i32* %3, align 4
  %103 = add nsw i32 %102, 1
  store i32 %103, i32* %3, align 4
  br label %54

104:                                              ; preds = %54
  %105 = load i32, i32* %8, align 4
  %106 = load i32, i32* %9, align 4
  %107 = icmp sgt i32 %105, %106
  br i1 %107, label %108, label %112

108:                                              ; preds = %104
  %109 = load i32, i32* %9, align 4
  %110 = load i32, i32* %8, align 4
  %111 = call i32 (i8*, ...) @printf(i8* getelementptr inbounds ([6 x i8], [6 x i8]* @.str.1, i64 0, i64 0), i32 %109, i32 %110)
  br label %124

112:                                              ; preds = %104
  %113 = load i32, i32* %8, align 4
  %114 = load i32, i32* %9, align 4
  %115 = icmp slt i32 %113, %114
  br i1 %115, label %116, label %120

116:                                              ; preds = %112
  %117 = load i32, i32* %8, align 4
  %118 = load i32, i32* %9, align 4
  %119 = call i32 (i8*, ...) @printf(i8* getelementptr inbounds ([6 x i8], [6 x i8]* @.str.1, i64 0, i64 0), i32 %117, i32 %118)
  br label %123

120:                                              ; preds = %112
  %121 = load i32, i32* %8, align 4
  %122 = call i32 (i8*, ...) @printf(i8* getelementptr inbounds ([3 x i8], [3 x i8]* @.str, i64 0, i64 0), i32 %121)
  br label %123

123:                                              ; preds = %120, %116
  br label %124

124:                                              ; preds = %123, %108
  ret void
}

declare dso_local i32 @__isoc99_scanf(i8*, ...) #1

declare dso_local i32 @printf(i8*, ...) #1


!llvm.module.flags = !{!0}
!llvm.ident = !{!1}

!0 = !{i32 1, !"wchar_size", i32 4}
!1 = !{!"clang version 10.0.0-4ubuntu1 "}
